; Function Attrs: mustprogress nofree norecurse nosync nounwind willreturn memory(argmem: read) uwtable
define { ptr, i64 } @_ZN6google8protobuf8internal17VarintParseSlow64EPKcj(ptr noundef %0, i32 noundef %1) local_unnamed_addr #9 {
  %3 = zext i32 %1 to i64
  br label %.critedge

4:                                                ; preds = %.critedge
  %indvars.iv.next = add nuw nsw i64 %indvars.iv, 1
  %exitcond = icmp eq i64 %indvars.iv.next, 10
  br i1 %exitcond, label %.critedge14, label %.critedge, !llvm.loop !28

.critedge:                                        ; preds = %2, %4
  %indvars.iv = phi i64 [ 2, %2 ], [ %indvars.iv.next, %4 ]
  %.01720 = phi i64 [ %3, %2 ], [ %11, %4 ]
  %5 = getelementptr inbounds nuw i8, ptr %0, i64 %indvars.iv
  %6 = load i8, ptr %5, align 1, !tbaa !25
  %7 = zext i8 %6 to i64
  %8 = add nsw i64 %7, -1
  %9 = mul nuw nsw i64 %indvars.iv, 7
  %10 = shl i64 %8, %9
  %11 = add i64 %10, %.01720
  %12 = icmp slt i8 %6, 0
  br i1 %12, label %4, label %13, !prof !27

13:                                               ; preds = %.critedge
  %14 = getelementptr inbounds nuw i8, ptr %0, i64 %indvars.iv
  %15 = getelementptr inbounds nuw i8, ptr %14, i64 1
  br label %.critedge14

.critedge14:                                      ; preds = %4, %13
  %.sroa.0.0 = phi ptr [ %15, %13 ], [ null, %4 ]
  %.sroa.3.0 = phi i64 [ %11, %13 ], [ 0, %4 ]
  %.fca.0.insert = insertvalue { ptr, i64 } poison, ptr %.sroa.0.0, 0
  %.fca.1.insert = insertvalue { ptr, i64 } %.fca.0.insert, i64 %.sroa.3.0, 1
  ret { ptr, i64 } %.fca.1.insert
}